; Function Attrs: mustprogress nofree norecurse nosync nounwind willreturn memory(readwrite, argmem: write, inaccessiblemem: none) uwtable
define dso_local void @_ZN10ExpressionC2E9eTermType(ptr noundef nonnull writeonly align 8 captures(none) dereferenceable(24) initializes((0, 24)) %0, i32 noundef %1) unnamed_addr #7 align 2 {
  store ptr getelementptr inbounds nuw inrange(-16, 176) (i8, ptr @_ZTV10Expression, i64 16), ptr %0, align 8, !tbaa !11
  %3 = getelementptr inbounds nuw i8, ptr %0, i64 8
  store i32 %1, ptr %3, align 8, !tbaa !96
  %4 = getelementptr inbounds nuw i8, ptr %0, i64 12
  %5 = load i32, ptr @eid, align 4, !tbaa !95
  %6 = add nsw i32 %5, 1
  store i32 %6, ptr @eid, align 4, !tbaa !95
  store i32 %5, ptr %4, align 4, !tbaa !109
  %7 = getelementptr inbounds nuw i8, ptr %0, i64 16
  store ptr null, ptr %7, align 8, !tbaa !108
  ret void
}